---
triple:          'arm64-apple-darwin'
binary-path:     game
relocations:
  - { offsetInCU: 0x3F, offset: 0x3F, size: 0x8, addend: 0x0, symName: _b, symObjAddr: 0x1F020, symBinAddr: 0x100008008, symSize: 0x0 }
  - { offsetInCU: 0x74, offset: 0x74, size: 0x8, addend: 0x0, symName: _maxdepth, symObjAddr: 0x2ED4, symBinAddr: 0x100008000, symSize: 0x0 }
  - { offsetInCU: 0x89, offset: 0x89, size: 0x8, addend: 0x0, symName: _start, symObjAddr: 0x1F078, symBinAddr: 0x100008060, symSize: 0x0 }
  - { offsetInCU: 0x37E, offset: 0x37E, size: 0x8, addend: 0x0, symName: __ZNSt3__16chronomiB8ue170006IxNS_5ratioILl1ELl1000000000EEExS3_EENS_11common_typeIJNS0_8durationIT_T0_EENS5_IT1_T2_EEEE4typeERKS8_RKSB_, symObjAddr: 0x2C60, symBinAddr: 0x100003A24, symSize: 0x70 }
  - { offsetInCU: 0x61F, offset: 0x61F, size: 0x8, addend: 0x0, symName: __ZNSt3__16chrono13duration_castB8ue170006INS0_8durationIxNS_5ratioILl1ELl1000EEEEExNS3_ILl1ELl1000000000EEEEENS_9enable_ifIXsr13__is_durationIT_EE5valueES8_E4typeERKNS2_IT0_T1_EE, symObjAddr: 0x1D74, symBinAddr: 0x100002B38, symSize: 0x30 }
  - { offsetInCU: 0x666, offset: 0x666, size: 0x8, addend: 0x0, symName: __ZNSt3__16chronomiB8ue170006INS0_12steady_clockENS0_8durationIxNS_5ratioILl1ELl1000000000EEEEES6_EENS_11common_typeIJT0_T1_EE4typeERKNS0_10time_pointIT_S8_EERKNSC_ISD_S9_EE, symObjAddr: 0x1DA4, symBinAddr: 0x100002B68, symSize: 0x58 }
  - { offsetInCU: 0x34E5, offset: 0x34E5, size: 0x8, addend: 0x0, symName: __ZNSt3__124__put_character_sequenceB8ue170006IcNS_11char_traitsIcEEEERNS_13basic_ostreamIT_T0_EES7_PKS4_m, symObjAddr: 0x2000, symBinAddr: 0x100002DC4, symSize: 0x1F4 }
  - { offsetInCU: 0x4F5C, offset: 0x4F5C, size: 0x8, addend: 0x0, symName: __ZNSt3__14endlB8ue170006IcNS_11char_traitsIcEEEERNS_13basic_ostreamIT_T0_EES7_, symObjAddr: 0xBD4, symBinAddr: 0x100001998, symSize: 0x58 }
  - { offsetInCU: 0x4F9C, offset: 0x4F9C, size: 0x8, addend: 0x0, symName: __ZNSt3__1lsB8ue170006INS_11char_traitsIcEEEERNS_13basic_ostreamIcT_EES6_c, symObjAddr: 0xC2C, symBinAddr: 0x1000019F0, symSize: 0x34 }
  - { offsetInCU: 0x4FE2, offset: 0x4FE2, size: 0x8, addend: 0x0, symName: __ZNSt3__1lsB8ue170006INS_11char_traitsIcEEEERNS_13basic_ostreamIcT_EES6_PKc, symObjAddr: 0xC60, symBinAddr: 0x100001A24, symSize: 0x48 }
  - { offsetInCU: 0x5028, offset: 0x5028, size: 0x8, addend: 0x0, symName: __ZNSt3__1rsB8ue170006IcNS_11char_traitsIcEEEERNS_13basic_istreamIT_T0_EES7_RS4_, symObjAddr: 0xCA8, symBinAddr: 0x100001A6C, symSize: 0x190 }
  - { offsetInCU: 0x50AA, offset: 0x50AA, size: 0x8, addend: 0x0, symName: __ZNSt3__13minB8ue170006IiEERKT_S3_S3_, symObjAddr: 0x1D48, symBinAddr: 0x100002B0C, symSize: 0x2C }
  - { offsetInCU: 0x5109, offset: 0x5109, size: 0x8, addend: 0x0, symName: __ZNSt3__19use_facetB8ue170006INS_5ctypeIcEEEERKT_RKNS_6localeE, symObjAddr: 0x1F90, symBinAddr: 0x100002D54, symSize: 0x2C }
  - { offsetInCU: 0x55D6, offset: 0x55D6, size: 0x8, addend: 0x0, symName: __ZNSt3__116__pad_and_outputB8ue170006IcNS_11char_traitsIcEEEENS_19ostreambuf_iteratorIT_T0_EES6_PKS4_S8_S8_RNS_8ios_baseES4_, symObjAddr: 0x2210, symBinAddr: 0x100002FD4, symSize: 0x248 }
  - { offsetInCU: 0x56A5, offset: 0x56A5, size: 0x8, addend: 0x0, symName: __ZNSt3__112__to_addressB8ue170006IKcEEPT_S3_, symObjAddr: 0x2780, symBinAddr: 0x100003544, symSize: 0x14 }
  - { offsetInCU: 0x56DA, offset: 0x56DA, size: 0x8, addend: 0x0, symName: __ZNSt3__130__libcpp_is_constant_evaluatedB8ue170006Ev, symObjAddr: 0x28AC, symBinAddr: 0x100003670, symSize: 0xC }
  - { offsetInCU: 0x572A, offset: 0x572A, size: 0x8, addend: 0x0, symName: __ZNSt3__118__constexpr_strlenB8ue170006EPKc, symObjAddr: 0x2A54, symBinAddr: 0x100003818, symSize: 0x24 }
  - { offsetInCU: 0x5CE1, offset: 0x5CE1, size: 0x8, addend: 0x0, symName: __ZNSt3__13minB8ue170006IiNS_6__lessIvvEEEERKT_S5_S5_T0_, symObjAddr: 0x2BD8, symBinAddr: 0x10000399C, symSize: 0x54 }
  - { offsetInCU: 0x5E24, offset: 0x5E24, size: 0x8, addend: 0x0, symName: _timeLimit, symObjAddr: 0x2ED8, symBinAddr: 0x100008004, symSize: 0x0 }
  - { offsetInCU: 0x61E1, offset: 0x61E1, size: 0x8, addend: 0x0, symName: __ZNKSt3__16chrono15__duration_castINS0_8durationIxNS_5ratioILl1ELl1000000000EEEEENS2_IxNS3_ILl1ELl1000EEEEENS3_ILl1ELl1000000EEELb1ELb0EEclB8ue170006ERKS5_, symObjAddr: 0x2D08, symBinAddr: 0x100003ACC, symSize: 0x4C }
  - { offsetInCU: 0x841D, offset: 0x841D, size: 0x8, addend: 0x0, symName: __ZNSt3__16chrono10time_pointINS0_12steady_clockENS0_8durationIxNS_5ratioILl1ELl1000000000EEEEEEC1B8ue170006Ev, symObjAddr: 0x0, symBinAddr: 0x100000DC4, symSize: 0x2C }
  - { offsetInCU: 0x8446, offset: 0x8446, size: 0x8, addend: 0x0, symName: _main, symObjAddr: 0x2C, symBinAddr: 0x100000DF0, symSize: 0x60 }
  - { offsetInCU: 0x847C, offset: 0x847C, size: 0x8, addend: 0x0, symName: __Z5setupv, symObjAddr: 0x8C, symBinAddr: 0x100000E50, symSize: 0x140 }
  - { offsetInCU: 0x850A, offset: 0x850A, size: 0x8, addend: 0x0, symName: __Z10printboardv, symObjAddr: 0x1CC, symBinAddr: 0x100000F90, symSize: 0x114 }
  - { offsetInCU: 0x855F, offset: 0x855F, size: 0x8, addend: 0x0, symName: __Z8getamoveRiS_, symObjAddr: 0x2E0, symBinAddr: 0x1000010A4, symSize: 0x1EC }
  - { offsetInCU: 0x85B2, offset: 0x85B2, size: 0x8, addend: 0x0, symName: __Z13checkGameOveriic, symObjAddr: 0x4CC, symBinAddr: 0x100001290, symSize: 0x100 }
  - { offsetInCU: 0x860A, offset: 0x860A, size: 0x8, addend: 0x0, symName: __Z8makemoveRiS_, symObjAddr: 0x5CC, symBinAddr: 0x100001390, symSize: 0x5DC }
  - { offsetInCU: 0x876E, offset: 0x876E, size: 0x8, addend: 0x0, symName: __ZNSt3__113basic_ostreamIcNS_11char_traitsIcEEElsB8ue170006EPFRS3_S4_E, symObjAddr: 0xBA8, symBinAddr: 0x10000196C, symSize: 0x2C }
  - { offsetInCU: 0x87A0, offset: 0x87A0, size: 0x8, addend: 0x0, symName: __Z8evaluatev, symObjAddr: 0xE38, symBinAddr: 0x100001BFC, symSize: 0x314 }
  - { offsetInCU: 0x8898, offset: 0x8898, size: 0x8, addend: 0x0, symName: __Z11scoreWindowcccc, symObjAddr: 0x114C, symBinAddr: 0x100001F10, symSize: 0x258 }
  - { offsetInCU: 0x894D, offset: 0x894D, size: 0x8, addend: 0x0, symName: __Z12distToCenterii, symObjAddr: 0x13A4, symBinAddr: 0x100002168, symSize: 0xAC }
  - { offsetInCU: 0x89A9, offset: 0x89A9, size: 0x8, addend: 0x0, symName: __Z12check4winneriic, symObjAddr: 0x1450, symBinAddr: 0x100002214, symSize: 0x428 }
  - { offsetInCU: 0x8A4F, offset: 0x8A4F, size: 0x8, addend: 0x0, symName: __Z3miniii, symObjAddr: 0x1878, symBinAddr: 0x10000263C, symSize: 0x234 }
  - { offsetInCU: 0x8B0B, offset: 0x8B0B, size: 0x8, addend: 0x0, symName: __Z6timeUpv, symObjAddr: 0x1AAC, symBinAddr: 0x100002870, symSize: 0x68 }
  - { offsetInCU: 0x8B29, offset: 0x8B29, size: 0x8, addend: 0x0, symName: __Z3maxiii, symObjAddr: 0x1B14, symBinAddr: 0x1000028D8, symSize: 0x234 }
  - { offsetInCU: 0x8BE5, offset: 0x8BE5, size: 0x8, addend: 0x0, symName: __ZNKSt3__16chrono8durationIxNS_5ratioILl1ELl1000EEEE5countB8ue170006Ev, symObjAddr: 0x1DFC, symBinAddr: 0x100002BC0, symSize: 0x18 }
  - { offsetInCU: 0x8C09, offset: 0x8C09, size: 0x8, addend: 0x0, symName: __ZNSt3__16chrono10time_pointINS0_12steady_clockENS0_8durationIxNS_5ratioILl1ELl1000000000EEEEEEC2B8ue170006Ev, symObjAddr: 0x1E14, symBinAddr: 0x100002BD8, symSize: 0x34 }
  - { offsetInCU: 0x8C32, offset: 0x8C32, size: 0x8, addend: 0x0, symName: __ZNSt3__16chrono8durationIxNS_5ratioILl1ELl1000000000EEEE4zeroB8ue170006Ev, symObjAddr: 0x1E48, symBinAddr: 0x100002C0C, symSize: 0x50 }
  - { offsetInCU: 0x8C46, offset: 0x8C46, size: 0x8, addend: 0x0, symName: __ZNSt3__16chrono15duration_valuesIxE4zeroB8ue170006Ev, symObjAddr: 0x1E98, symBinAddr: 0x100002C5C, symSize: 0x8 }
  - { offsetInCU: 0x8C68, offset: 0x8C68, size: 0x8, addend: 0x0, symName: __ZNSt3__16chrono8durationIxNS_5ratioILl1ELl1000000000EEEEC1B8ue170006IxEERKT_PNS_9enable_ifIXaasr14is_convertibleIS8_xEE5valueooL_ZNS_17integral_constantIbLb0EE5valueEEntsr23treat_as_floating_pointIS6_EE5valueEvE4typeE, symObjAddr: 0x1EA0, symBinAddr: 0x100002C64, symSize: 0x3C }
  - { offsetInCU: 0x8CB4, offset: 0x8CB4, size: 0x8, addend: 0x0, symName: __ZNSt3__16chrono8durationIxNS_5ratioILl1ELl1000000000EEEEC2B8ue170006IxEERKT_PNS_9enable_ifIXaasr14is_convertibleIS8_xEE5valueooL_ZNS_17integral_constantIbLb0EE5valueEEntsr23treat_as_floating_pointIS6_EE5valueEvE4typeE, symObjAddr: 0x1EDC, symBinAddr: 0x100002CA0, symSize: 0x28 }
  - { offsetInCU: 0x8D00, offset: 0x8D00, size: 0x8, addend: 0x0, symName: __ZNKSt3__19basic_iosIcNS_11char_traitsIcEEE5widenB8ue170006Ec, symObjAddr: 0x1F04, symBinAddr: 0x100002CC8, symSize: 0x8C }
  - { offsetInCU: 0x8D6C, offset: 0x8D6C, size: 0x8, addend: 0x0, symName: __ZNKSt3__15ctypeIcE5widenB8ue170006Ec, symObjAddr: 0x1FBC, symBinAddr: 0x100002D80, symSize: 0x38 }
  - { offsetInCU: 0x8DBE, offset: 0x8DBE, size: 0x8, addend: 0x0, symName: __ZNKSt3__113basic_ostreamIcNS_11char_traitsIcEEE6sentrycvbB8ue170006Ev, symObjAddr: 0x21F4, symBinAddr: 0x100002FB8, symSize: 0x1C }
  - { offsetInCU: 0x8DE2, offset: 0x8DE2, size: 0x8, addend: 0x0, symName: __ZNSt3__119ostreambuf_iteratorIcNS_11char_traitsIcEEEC1B8ue170006ERNS_13basic_ostreamIcS2_EE, symObjAddr: 0x2458, symBinAddr: 0x10000321C, symSize: 0x34 }
  - { offsetInCU: 0x8E19, offset: 0x8E19, size: 0x8, addend: 0x0, symName: __ZNKSt3__18ios_base5flagsB8ue170006Ev, symObjAddr: 0x248C, symBinAddr: 0x100003250, symSize: 0x18 }
  - { offsetInCU: 0x8E40, offset: 0x8E40, size: 0x8, addend: 0x0, symName: __ZNKSt3__19basic_iosIcNS_11char_traitsIcEEE4fillB8ue170006Ev, symObjAddr: 0x24A4, symBinAddr: 0x100003268, symSize: 0x64 }
  - { offsetInCU: 0x8E67, offset: 0x8E67, size: 0x8, addend: 0x0, symName: __ZNKSt3__119ostreambuf_iteratorIcNS_11char_traitsIcEEE6failedB8ue170006Ev, symObjAddr: 0x2508, symBinAddr: 0x1000032CC, symSize: 0x24 }
  - { offsetInCU: 0x8E8B, offset: 0x8E8B, size: 0x8, addend: 0x0, symName: __ZNSt3__19basic_iosIcNS_11char_traitsIcEEE8setstateB8ue170006Ej, symObjAddr: 0x252C, symBinAddr: 0x1000032F0, symSize: 0x2C }
  - { offsetInCU: 0x8EBF, offset: 0x8EBF, size: 0x8, addend: 0x0, symName: __ZNKSt3__18ios_base5widthB8ue170006Ev, symObjAddr: 0x2558, symBinAddr: 0x10000331C, symSize: 0x18 }
  - { offsetInCU: 0x8EE5, offset: 0x8EE5, size: 0x8, addend: 0x0, symName: __ZNSt3__115basic_streambufIcNS_11char_traitsIcEEE5sputnB8ue170006EPKcl, symObjAddr: 0x2570, symBinAddr: 0x100003334, symSize: 0x3C }
  - { offsetInCU: 0x8F25, offset: 0x8F25, size: 0x8, addend: 0x0, symName: __ZNSt3__112basic_stringIcNS_11char_traitsIcEENS_9allocatorIcEEEC1B8ue170006Emc, symObjAddr: 0x25AC, symBinAddr: 0x100003370, symSize: 0x3C }
  - { offsetInCU: 0x8F6B, offset: 0x8F6B, size: 0x8, addend: 0x0, symName: __ZNKSt3__112basic_stringIcNS_11char_traitsIcEENS_9allocatorIcEEE4dataB8ue170006Ev, symObjAddr: 0x25E8, symBinAddr: 0x1000033AC, symSize: 0x28 }
  - { offsetInCU: 0x8F90, offset: 0x8F90, size: 0x8, addend: 0x0, symName: __ZNSt3__18ios_base5widthB8ue170006El, symObjAddr: 0x2610, symBinAddr: 0x1000033D4, symSize: 0x2C }
  - { offsetInCU: 0x8FD4, offset: 0x8FD4, size: 0x8, addend: 0x0, symName: __ZNSt3__112basic_stringIcNS_11char_traitsIcEENS_9allocatorIcEEEC2B8ue170006Emc, symObjAddr: 0x263C, symBinAddr: 0x100003400, symSize: 0x4C }
  - { offsetInCU: 0x901F, offset: 0x901F, size: 0x8, addend: 0x0, symName: __ZNSt3__117__compressed_pairINS_12basic_stringIcNS_11char_traitsIcEENS_9allocatorIcEEE5__repES5_EC1B8ue170006INS_18__default_init_tagESA_EEOT_OT0_, symObjAddr: 0x2688, symBinAddr: 0x10000344C, symSize: 0x3C }
  - { offsetInCU: 0x9075, offset: 0x9075, size: 0x8, addend: 0x0, symName: __ZNSt3__117__compressed_pairINS_12basic_stringIcNS_11char_traitsIcEENS_9allocatorIcEEE5__repES5_EC2B8ue170006INS_18__default_init_tagESA_EEOT_OT0_, symObjAddr: 0x26C4, symBinAddr: 0x100003488, symSize: 0x3C }
  - { offsetInCU: 0x90CC, offset: 0x90CC, size: 0x8, addend: 0x0, symName: __ZNSt3__122__compressed_pair_elemINS_12basic_stringIcNS_11char_traitsIcEENS_9allocatorIcEEE5__repELi0ELb0EEC2B8ue170006ENS_18__default_init_tagE, symObjAddr: 0x2700, symBinAddr: 0x1000034C4, symSize: 0x14 }
  - { offsetInCU: 0x90FF, offset: 0x90FF, size: 0x8, addend: 0x0, symName: __ZNSt3__122__compressed_pair_elemINS_9allocatorIcEELi1ELb1EEC2B8ue170006ENS_18__default_init_tagE, symObjAddr: 0x2714, symBinAddr: 0x1000034D8, symSize: 0x2C }
  - { offsetInCU: 0x9132, offset: 0x9132, size: 0x8, addend: 0x0, symName: __ZNSt3__19allocatorIcEC2B8ue170006Ev, symObjAddr: 0x2740, symBinAddr: 0x100003504, symSize: 0x2C }
  - { offsetInCU: 0x915B, offset: 0x915B, size: 0x8, addend: 0x0, symName: __ZNSt3__116__non_trivial_ifILb1ENS_9allocatorIcEEEC2B8ue170006Ev, symObjAddr: 0x276C, symBinAddr: 0x100003530, symSize: 0x14 }
  - { offsetInCU: 0x9183, offset: 0x9183, size: 0x8, addend: 0x0, symName: __ZNKSt3__112basic_stringIcNS_11char_traitsIcEENS_9allocatorIcEEE13__get_pointerB8ue170006Ev, symObjAddr: 0x2794, symBinAddr: 0x100003558, symSize: 0x54 }
  - { offsetInCU: 0x91A7, offset: 0x91A7, size: 0x8, addend: 0x0, symName: __ZNKSt3__112basic_stringIcNS_11char_traitsIcEENS_9allocatorIcEEE9__is_longB8ue170006Ev, symObjAddr: 0x27E8, symBinAddr: 0x1000035AC, symSize: 0x74 }
  - { offsetInCU: 0x91CB, offset: 0x91CB, size: 0x8, addend: 0x0, symName: __ZNKSt3__112basic_stringIcNS_11char_traitsIcEENS_9allocatorIcEEE18__get_long_pointerB8ue170006Ev, symObjAddr: 0x285C, symBinAddr: 0x100003620, symSize: 0x28 }
  - { offsetInCU: 0x91EF, offset: 0x91EF, size: 0x8, addend: 0x0, symName: __ZNKSt3__112basic_stringIcNS_11char_traitsIcEENS_9allocatorIcEEE19__get_short_pointerB8ue170006Ev, symObjAddr: 0x2884, symBinAddr: 0x100003648, symSize: 0x28 }
  - { offsetInCU: 0x9213, offset: 0x9213, size: 0x8, addend: 0x0, symName: __ZNKSt3__117__compressed_pairINS_12basic_stringIcNS_11char_traitsIcEENS_9allocatorIcEEE5__repES5_E5firstB8ue170006Ev, symObjAddr: 0x28B8, symBinAddr: 0x10000367C, symSize: 0x24 }
  - { offsetInCU: 0x9238, offset: 0x9238, size: 0x8, addend: 0x0, symName: __ZNKSt3__122__compressed_pair_elemINS_12basic_stringIcNS_11char_traitsIcEENS_9allocatorIcEEE5__repELi0ELb0EE5__getB8ue170006Ev, symObjAddr: 0x28DC, symBinAddr: 0x1000036A0, symSize: 0x14 }
  - { offsetInCU: 0x925D, offset: 0x925D, size: 0x8, addend: 0x0, symName: __ZNSt3__114pointer_traitsIPKcE10pointer_toB8ue170006ERS1_, symObjAddr: 0x28F0, symBinAddr: 0x1000036B4, symSize: 0x14 }
  - { offsetInCU: 0x927F, offset: 0x927F, size: 0x8, addend: 0x0, symName: __ZNSt3__119ostreambuf_iteratorIcNS_11char_traitsIcEEEC2B8ue170006ERNS_13basic_ostreamIcS2_EE, symObjAddr: 0x2904, symBinAddr: 0x1000036C8, symSize: 0x68 }
  - { offsetInCU: 0x92B6, offset: 0x92B6, size: 0x8, addend: 0x0, symName: __ZNKSt3__19basic_iosIcNS_11char_traitsIcEEE5rdbufB8ue170006Ev, symObjAddr: 0x296C, symBinAddr: 0x100003730, symSize: 0x24 }
  - { offsetInCU: 0x92DD, offset: 0x92DD, size: 0x8, addend: 0x0, symName: __ZNKSt3__18ios_base5rdbufB8ue170006Ev, symObjAddr: 0x2990, symBinAddr: 0x100003754, symSize: 0x18 }
  - { offsetInCU: 0x9302, offset: 0x9302, size: 0x8, addend: 0x0, symName: __ZNSt3__111char_traitsIcE11eq_int_typeB8ue170006Eii, symObjAddr: 0x29A8, symBinAddr: 0x10000376C, symSize: 0x28 }
  - { offsetInCU: 0x9335, offset: 0x9335, size: 0x8, addend: 0x0, symName: __ZNSt3__111char_traitsIcE3eofB8ue170006Ev, symObjAddr: 0x29D0, symBinAddr: 0x100003794, symSize: 0x8 }
  - { offsetInCU: 0x9349, offset: 0x9349, size: 0x8, addend: 0x0, symName: __ZNSt3__18ios_base8setstateB8ue170006Ej, symObjAddr: 0x29D8, symBinAddr: 0x10000379C, symSize: 0x34 }
  - { offsetInCU: 0x937F, offset: 0x937F, size: 0x8, addend: 0x0, symName: __ZNSt3__111char_traitsIcE6lengthB8ue170006EPKc, symObjAddr: 0x2A0C, symBinAddr: 0x1000037D0, symSize: 0x48 }
  - { offsetInCU: 0x9434, offset: 0x9434, size: 0x8, addend: 0x0, symName: __ZNKSt3__113basic_istreamIcNS_11char_traitsIcEEE6sentrycvbB8ue170006Ev, symObjAddr: 0x2A78, symBinAddr: 0x10000383C, symSize: 0x1C }
  - { offsetInCU: 0x9458, offset: 0x9458, size: 0x8, addend: 0x0, symName: __ZNSt3__115basic_streambufIcNS_11char_traitsIcEEE6sbumpcB8ue170006Ev, symObjAddr: 0x2A94, symBinAddr: 0x100003858, symSize: 0x78 }
  - { offsetInCU: 0x947D, offset: 0x947D, size: 0x8, addend: 0x0, symName: __ZNSt3__111char_traitsIcE12to_char_typeB8ue170006Ei, symObjAddr: 0x2B0C, symBinAddr: 0x1000038D0, symSize: 0x18 }
  - { offsetInCU: 0x94A0, offset: 0x94A0, size: 0x8, addend: 0x0, symName: __ZNSt3__18ios_base18__setstate_nothrowB8ue170006Ej, symObjAddr: 0x2B24, symBinAddr: 0x1000038E8, symSize: 0x64 }
  - { offsetInCU: 0x94D3, offset: 0x94D3, size: 0x8, addend: 0x0, symName: __ZNKSt3__19basic_iosIcNS_11char_traitsIcEEE10exceptionsB8ue170006Ev, symObjAddr: 0x2B88, symBinAddr: 0x10000394C, symSize: 0x24 }
  - { offsetInCU: 0x94F8, offset: 0x94F8, size: 0x8, addend: 0x0, symName: __ZNSt3__111char_traitsIcE11to_int_typeB8ue170006Ec, symObjAddr: 0x2BAC, symBinAddr: 0x100003970, symSize: 0x14 }
  - { offsetInCU: 0x951C, offset: 0x951C, size: 0x8, addend: 0x0, symName: __ZNKSt3__18ios_base10exceptionsB8ue170006Ev, symObjAddr: 0x2BC0, symBinAddr: 0x100003984, symSize: 0x18 }
  - { offsetInCU: 0x9557, offset: 0x9557, size: 0x8, addend: 0x0, symName: __ZNKSt3__16__lessIvvEclB8ue170006IiiEEbRKT_RKT0_, symObjAddr: 0x2C2C, symBinAddr: 0x1000039F0, symSize: 0x34 }
  - { offsetInCU: 0x95AA, offset: 0x95AA, size: 0x8, addend: 0x0, symName: __ZNKSt3__16chrono10time_pointINS0_12steady_clockENS0_8durationIxNS_5ratioILl1ELl1000000000EEEEEE16time_since_epochB8ue170006Ev, symObjAddr: 0x2CD0, symBinAddr: 0x100003A94, symSize: 0x20 }
  - { offsetInCU: 0x95CF, offset: 0x95CF, size: 0x8, addend: 0x0, symName: __ZNKSt3__16chrono8durationIxNS_5ratioILl1ELl1000000000EEEE5countB8ue170006Ev, symObjAddr: 0x2CF0, symBinAddr: 0x100003AB4, symSize: 0x18 }
  - { offsetInCU: 0x95F3, offset: 0x95F3, size: 0x8, addend: 0x0, symName: __ZNSt3__16chrono8durationIxNS_5ratioILl1ELl1000EEEEC1B8ue170006IxEERKT_PNS_9enable_ifIXaasr14is_convertibleIS8_xEE5valueooL_ZNS_17integral_constantIbLb0EE5valueEEntsr23treat_as_floating_pointIS6_EE5valueEvE4typeE, symObjAddr: 0x2D54, symBinAddr: 0x100003B18, symSize: 0x3C }
  - { offsetInCU: 0x963F, offset: 0x963F, size: 0x8, addend: 0x0, symName: __ZNSt3__16chrono8durationIxNS_5ratioILl1ELl1000EEEEC2B8ue170006IxEERKT_PNS_9enable_ifIXaasr14is_convertibleIS8_xEE5valueooL_ZNS_17integral_constantIbLb0EE5valueEEntsr23treat_as_floating_pointIS6_EE5valueEvE4typeE, symObjAddr: 0x2D90, symBinAddr: 0x100003B54, symSize: 0x28 }
...
